target datalayout = "e-m:e-p270:32:32-p271:32:32-p272:64:64-i64:64-i128:128-f80:128-n8:16:32:64-S128"
target triple = "x86_64-pc-linux-gnu"

%"class.llvm::SHA256" = type { %struct.anon }
%struct.anon = type { %union.anon, [8 x i32], i32, i8 }
%union.anon = type { [16 x i32] }
%"class.llvm::ArrayRef" = type { ptr, i64 }
%"struct.std::array" = type { [8 x i32] }
%"struct.std::array.0" = type { [32 x i8] }
%union.anon.1 = type { %"struct.std::array" }

; Function Attrs: mustprogress nounwind uwtable
define linkonce_odr hidden noundef nonnull align 4 dereferenceable(4) ptr @_ZNSt14__array_traitsIjLm8EE6_S_refERA8_Kjm(ptr noundef nonnull align 4 dereferenceable(32) %0, i64 noundef %1) #0 comdat align 2 {
  %3 = alloca ptr, align 8
  %4 = alloca i64, align 8
  store ptr %0, ptr %3, align 8
  store i64 %1, ptr %4, align 8
  %5 = load ptr, ptr %3, align 8
  %6 = load i64, ptr %4, align 8
  %7 = getelementptr inbounds [8 x i32], ptr %5, i64 0, i64 %6
  ret ptr %7
}

; Function Attrs: mustprogress nounwind uwtable
define linkonce_odr hidden noundef nonnull align 4 dereferenceable(4) ptr @_ZNSt5arrayIjLm8EEixEm(ptr noundef nonnull align 4 dereferenceable(32) %0, i64 noundef %1) #0 comdat align 2 {
  %3 = alloca ptr, align 8
  %4 = alloca i64, align 8
  store ptr %0, ptr %3, align 8
  store i64 %1, ptr %4, align 8
  %5 = load ptr, ptr %3, align 8
  %6 = getelementptr inbounds nuw %"struct.std::array", ptr %5, i32 0, i32 0
  %7 = load i64, ptr %4, align 8
  %8 = call noundef nonnull align 4 dereferenceable(4) ptr @_ZNSt14__array_traitsIjLm8EE6_S_refERA8_Kjm(ptr noundef nonnull align 4 dereferenceable(32) %6, i64 noundef %7) #4
  ret ptr %8
}

; Function Attrs: mustprogress nounwind uwtable
define linkonce_odr hidden noundef i32 @_ZN4llvm8byteswapIjvEET_S1_(i32 noundef %0) #0 comdat {
  %2 = alloca i32, align 4
  %3 = alloca i32, align 4
  store i32 %0, ptr %2, align 4
  %4 = load i32, ptr %2, align 4
  store i32 %4, ptr %3, align 4
  %5 = load i32, ptr %3, align 4
  %6 = call i32 @llvm.bswap.i32(i32 %5)
  ret i32 %6
}

; Function Attrs: mustprogress nounwind uwtable
define dso_local void @_ZN4llvm6SHA2565finalERSt5arrayIjLm8EE(ptr noundef nonnull align 4 dereferenceable(104) %0, ptr noundef nonnull align 4 dereferenceable(32) %1) #0 align 2 {
  %3 = alloca ptr, align 8
  %4 = alloca ptr, align 8
  %5 = alloca i32, align 4
  store ptr %0, ptr %3, align 8
  store ptr %1, ptr %4, align 8
  %6 = load ptr, ptr %3, align 8
  call void @_ZN4llvm6SHA2563padEv(ptr noundef nonnull align 4 dereferenceable(104) %6)
  store i32 0, ptr %5, align 4
  br label %7

7:                                                ; preds = %22, %2
  %8 = load i32, ptr %5, align 4
  %9 = icmp slt i32 %8, 8
  br i1 %9, label %10, label %25

10:                                               ; preds = %7
  %11 = getelementptr inbounds nuw %"class.llvm::SHA256", ptr %6, i32 0, i32 0
  %12 = getelementptr inbounds nuw %struct.anon, ptr %11, i32 0, i32 1
  %13 = load i32, ptr %5, align 4
  %14 = sext i32 %13 to i64
  %15 = getelementptr inbounds [8 x i32], ptr %12, i64 0, i64 %14
  %16 = load i32, ptr %15, align 4
  %17 = call noundef i32 @_ZN4llvm8byteswapIjvEET_S1_(i32 noundef %16) #4
  %18 = load ptr, ptr %4, align 8
  %19 = load i32, ptr %5, align 4
  %20 = sext i32 %19 to i64
  %21 = call noundef nonnull align 4 dereferenceable(4) ptr @_ZNSt5arrayIjLm8EEixEm(ptr noundef nonnull align 4 dereferenceable(32) %18, i64 noundef %20) #4
  store i32 %17, ptr %21, align 4
  br label %22

22:                                               ; preds = %10
  %23 = load i32, ptr %5, align 4
  %24 = add nsw i32 %23, 1
  store i32 %24, ptr %5, align 4
  br label %7, !llvm.loop !9

25:                                               ; preds = %7
  ret void
}

; Function Attrs: mustprogress nounwind uwtable
define dso_local void @_ZN4llvm6SHA2564initEv(ptr noundef nonnull align 4 dereferenceable(104) %0) #0 align 2 {
  %2 = alloca ptr, align 8
  store ptr %0, ptr %2, align 8
  %3 = load ptr, ptr %2, align 8
  %4 = getelementptr inbounds nuw %"class.llvm::SHA256", ptr %3, i32 0, i32 0
  %5 = getelementptr inbounds nuw %struct.anon, ptr %4, i32 0, i32 1
  %6 = getelementptr inbounds [8 x i32], ptr %5, i64 0, i64 0
  store i32 1779033703, ptr %6, align 4
  %7 = getelementptr inbounds nuw %"class.llvm::SHA256", ptr %3, i32 0, i32 0
  %8 = getelementptr inbounds nuw %struct.anon, ptr %7, i32 0, i32 1
  %9 = getelementptr inbounds [8 x i32], ptr %8, i64 0, i64 1
  store i32 -1150833019, ptr %9, align 4
  %10 = getelementptr inbounds nuw %"class.llvm::SHA256", ptr %3, i32 0, i32 0
  %11 = getelementptr inbounds nuw %struct.anon, ptr %10, i32 0, i32 1
  %12 = getelementptr inbounds [8 x i32], ptr %11, i64 0, i64 2
  store i32 1013904242, ptr %12, align 4
  %13 = getelementptr inbounds nuw %"class.llvm::SHA256", ptr %3, i32 0, i32 0
  %14 = getelementptr inbounds nuw %struct.anon, ptr %13, i32 0, i32 1
  %15 = getelementptr inbounds [8 x i32], ptr %14, i64 0, i64 3
  store i32 -1521486534, ptr %15, align 4
  %16 = getelementptr inbounds nuw %"class.llvm::SHA256", ptr %3, i32 0, i32 0
  %17 = getelementptr inbounds nuw %struct.anon, ptr %16, i32 0, i32 1
  %18 = getelementptr inbounds [8 x i32], ptr %17, i64 0, i64 4
  store i32 1359893119, ptr %18, align 4
  %19 = getelementptr inbounds nuw %"class.llvm::SHA256", ptr %3, i32 0, i32 0
  %20 = getelementptr inbounds nuw %struct.anon, ptr %19, i32 0, i32 1
  %21 = getelementptr inbounds [8 x i32], ptr %20, i64 0, i64 5
  store i32 -1694144372, ptr %21, align 4
  %22 = getelementptr inbounds nuw %"class.llvm::SHA256", ptr %3, i32 0, i32 0
  %23 = getelementptr inbounds nuw %struct.anon, ptr %22, i32 0, i32 1
  %24 = getelementptr inbounds [8 x i32], ptr %23, i64 0, i64 6
  store i32 528734635, ptr %24, align 4
  %25 = getelementptr inbounds nuw %"class.llvm::SHA256", ptr %3, i32 0, i32 0
  %26 = getelementptr inbounds nuw %struct.anon, ptr %25, i32 0, i32 1
  %27 = getelementptr inbounds [8 x i32], ptr %26, i64 0, i64 7
  store i32 1541459225, ptr %27, align 4
  %28 = getelementptr inbounds nuw %"class.llvm::SHA256", ptr %3, i32 0, i32 0
  %29 = getelementptr inbounds nuw %struct.anon, ptr %28, i32 0, i32 2
  store i32 0, ptr %29, align 4
  %30 = getelementptr inbounds nuw %"class.llvm::SHA256", ptr %3, i32 0, i32 0
  %31 = getelementptr inbounds nuw %struct.anon, ptr %30, i32 0, i32 3
  store i8 0, ptr %31, align 4
  ret void
}

; Function Attrs: mustprogress nounwind uwtable
define dso_local void @_ZN4llvm6SHA2565finalEv(ptr dead_on_unwind noalias writable sret(%"struct.std::array.0") align 1 %0, ptr noundef nonnull align 4 dereferenceable(104) %1) #0 align 2 {
  %3 = alloca ptr, align 8
  %4 = alloca %union.anon.1, align 4
  store ptr %1, ptr %3, align 8
  %5 = load ptr, ptr %3, align 8
  call void @_ZN4llvm6SHA2565finalERSt5arrayIjLm8EE(ptr noundef nonnull align 4 dereferenceable(104) %5, ptr noundef nonnull align 4 dereferenceable(32) %4)
  call void @llvm.memcpy.p0.p0.i64(ptr align 1 %0, ptr align 4 %4, i64 32, i1 false)
  ret void
}

; Function Attrs: mustprogress nounwind uwtable
define linkonce_odr hidden void @_ZN4llvm6SHA256C2Ev(ptr noundef nonnull align 4 dereferenceable(104) %0) unnamed_addr #0 comdat align 2 {
  %2 = alloca ptr, align 8
  store ptr %0, ptr %2, align 8
  %3 = load ptr, ptr %2, align 8
  call void @_ZN4llvm6SHA2564initEv(ptr noundef nonnull align 4 dereferenceable(104) %3)
  ret void
}

; Function Attrs: mustprogress nounwind uwtable
define dso_local void @_ZN4llvm6SHA2564hashENS_8ArrayRefIhEE(ptr dead_on_unwind noalias writable sret(%"struct.std::array.0") align 1 %0, ptr %1, i64 %2) #0 align 2 {
  %4 = alloca %"class.llvm::ArrayRef", align 8
  %5 = alloca %"class.llvm::SHA256", align 4
  %6 = alloca %"class.llvm::ArrayRef", align 8
  %7 = getelementptr inbounds nuw { ptr, i64 }, ptr %4, i32 0, i32 0
  store ptr %1, ptr %7, align 8
  %8 = getelementptr inbounds nuw { ptr, i64 }, ptr %4, i32 0, i32 1
  store i64 %2, ptr %8, align 8
  call void @_ZN4llvm6SHA256C2Ev(ptr noundef nonnull align 4 dereferenceable(104) %5)
  call void @llvm.memcpy.p0.p0.i64(ptr align 8 %6, ptr align 8 %4, i64 16, i1 false)
  %9 = getelementptr inbounds nuw { ptr, i64 }, ptr %6, i32 0, i32 0
  %10 = load ptr, ptr %9, align 8
  %11 = getelementptr inbounds nuw { ptr, i64 }, ptr %6, i32 0, i32 1
  %12 = load i64, ptr %11, align 8
  call void @_ZN4llvm6SHA2566updateENS_8ArrayRefIhEE(ptr noundef nonnull align 4 dereferenceable(104) %5, ptr %10, i64 %12)
  call void @_ZN4llvm6SHA2565finalEv(ptr dead_on_unwind writable sret(%"struct.std::array.0") align 1 %0, ptr noundef nonnull align 4 dereferenceable(104) %5)
  ret void
}