; Function Attrs: mustprogress nofree norecurse nosync nounwind memory(argmem: readwrite, inaccessiblemem: write) uwtable
define dso_local void @_ZN4llvm6SHA2564hashENS_8ArrayRefIhEE(ptr dead_on_unwind noalias nocapture writable writeonly sret(%"struct.std::array.0") align 1 %0, ptr %1, i64 %2) local_unnamed_addr #2 align 2 {
  %4 = alloca %union.anon.1, align 4
  %5 = alloca %"class.llvm::SHA256", align 4
  %6 = getelementptr inbounds nuw i8, ptr %5, i64 64
  store i32 1779033703, ptr %6, align 4
  %7 = getelementptr inbounds i8, ptr %5, i64 68
  store i32 -1150833019, ptr %7, align 4
  %8 = getelementptr inbounds i8, ptr %5, i64 72
  store i32 1013904242, ptr %8, align 4
  %9 = getelementptr inbounds i8, ptr %5, i64 76
  store i32 -1521486534, ptr %9, align 4
  %10 = getelementptr inbounds i8, ptr %5, i64 80
  store i32 1359893119, ptr %10, align 4
  %11 = getelementptr inbounds i8, ptr %5, i64 84
  store i32 -1694144372, ptr %11, align 4
  %12 = getelementptr inbounds i8, ptr %5, i64 88
  store i32 528734635, ptr %12, align 4
  %13 = getelementptr inbounds i8, ptr %5, i64 92
  store i32 1541459225, ptr %13, align 4
  %14 = getelementptr inbounds nuw i8, ptr %5, i64 96
  store i32 0, ptr %14, align 4
  %15 = getelementptr inbounds nuw i8, ptr %5, i64 100
  store i8 0, ptr %15, align 4
  call void @_ZN4llvm6SHA2566updateENS_8ArrayRefIhEE(ptr noundef nonnull align 4 dereferenceable(104) %5, ptr %1, i64 %2)
  call void @llvm.lifetime.start.p0(i64 32, ptr nonnull %4)
  call void @_ZN4llvm6SHA2563padEv(ptr noundef nonnull align 4 dereferenceable(104) %5), !noalias !13
  br label %16

16:                                               ; preds = %16, %3
  %indvars.iv.i.i = phi i64 [ 0, %3 ], [ %indvars.iv.next.i.i, %16 ]
  %17 = getelementptr inbounds [8 x i32], ptr %6, i64 0, i64 %indvars.iv.i.i
  %18 = load i32, ptr %17, align 4, !noalias !13
  %19 = tail call noundef i32 @llvm.bswap.i32(i32 %18)
  %20 = getelementptr inbounds [8 x i32], ptr %4, i64 0, i64 %indvars.iv.i.i
  store i32 %19, ptr %20, align 4, !noalias !13
  %indvars.iv.next.i.i = add nuw nsw i64 %indvars.iv.i.i, 1
  %exitcond.not.i.i = icmp eq i64 %indvars.iv.next.i.i, 8
  br i1 %exitcond.not.i.i, label %_ZN4llvm6SHA2565finalEv.exit, label %16, !llvm.loop !9

_ZN4llvm6SHA2565finalEv.exit:                     ; preds = %16
  call void @llvm.memcpy.p0.p0.i64(ptr noundef nonnull align 1 dereferenceable(32) %0, ptr noundef nonnull align 4 dereferenceable(32) %4, i64 32, i1 false)
  call void @llvm.lifetime.end.p0(i64 32, ptr nonnull %4)
  ret void
}